target datalayout = "e-m:e-p270:32:32-p271:32:32-p272:64:64-i64:64-i128:128-f80:128-n8:16:32:64-S128"
target triple = "x86_64-pc-linux-gnu"

@TMPI_COMM_WORLD = external global ptr, align 8

; Function Attrs: mustprogress uwtable
define noundef i32 @_Z12tMPI_Init_fnii22tMPI_Affinity_strategyPFvPKvES1_(i32 noundef %0, i32 noundef %1, i32 noundef %2, ptr noundef %3, ptr noundef %4) #0 {
  %6 = alloca i32, align 4
  %7 = alloca i32, align 4
  %8 = alloca i32, align 4
  %9 = alloca i32, align 4
  %10 = alloca ptr, align 8
  %11 = alloca ptr, align 8
  %12 = alloca i32, align 4
  %13 = alloca i32, align 4
  store i32 %0, ptr %7, align 4, !tbaa !30
  store i32 %1, ptr %8, align 4, !tbaa !30
  store i32 %2, ptr %9, align 4, !tbaa !61
  store ptr %3, ptr %10, align 8, !tbaa !60
  store ptr %4, ptr %11, align 8, !tbaa !60
  call void @llvm.lifetime.start.p0(i64 4, ptr %12) #11
  %14 = load i32, ptr %8, align 4, !tbaa !30
  %15 = icmp slt i32 %14, 1
  br i1 %15, label %16, label %22

16:                                               ; preds = %5
  %17 = call noundef i32 @_Z25tMPI_Thread_get_hw_numberv()
  store i32 %17, ptr %8, align 4, !tbaa !30
  %18 = load i32, ptr %8, align 4, !tbaa !30
  %19 = icmp slt i32 %18, 1
  br i1 %19, label %20, label %21

20:                                               ; preds = %16
  store i32 1, ptr %8, align 4, !tbaa !30
  br label %21

21:                                               ; preds = %20, %16
  br label %22

22:                                               ; preds = %21, %5
  %23 = load ptr, ptr @TMPI_COMM_WORLD, align 8, !tbaa !3
  %24 = icmp eq ptr %23, null
  br i1 %24, label %25, label %40

25:                                               ; preds = %22
  %26 = load i32, ptr %8, align 4, !tbaa !30
  %27 = icmp sge i32 %26, 1
  br i1 %27, label %28, label %40

28:                                               ; preds = %25
  %29 = load i32, ptr %7, align 4, !tbaa !30
  %30 = load i32, ptr %8, align 4, !tbaa !30
  %31 = load i32, ptr %9, align 4, !tbaa !61
  %32 = load ptr, ptr %10, align 8, !tbaa !60
  %33 = load ptr, ptr %11, align 8, !tbaa !60
  %34 = call noundef i32 @_ZL18tMPI_Start_threadsii22tMPI_Affinity_strategyPiPPPcPFvPKvES5_PFiiS2_E(i32 noundef %29, i32 noundef %30, i32 noundef %31, ptr noundef null, ptr noundef null, ptr noundef %32, ptr noundef %33, ptr noundef null)
  store i32 %34, ptr %12, align 4, !tbaa !30
  %35 = load i32, ptr %12, align 4, !tbaa !30
  %36 = icmp ne i32 %35, 0
  br i1 %36, label %37, label %39

37:                                               ; preds = %28
  %38 = load i32, ptr %12, align 4, !tbaa !30
  store i32 %38, ptr %6, align 4
  store i32 1, ptr %13, align 4
  br label %41

39:                                               ; preds = %28
  br label %40

40:                                               ; preds = %39, %25, %22
  store i32 0, ptr %6, align 4
  store i32 1, ptr %13, align 4
  br label %41

41:                                               ; preds = %40, %37
  call void @llvm.lifetime.end.p0(i64 4, ptr %12) #11
  %42 = load i32, ptr %6, align 4
  ret i32 %42
}