; Function Attrs: mustprogress uwtable
define noundef i32 @_Z12tMPI_Init_fnii22tMPI_Affinity_strategyPFvPKvES1_(i32 noundef %0, i32 noundef %1, i32 noundef %2, ptr noundef %3, ptr noundef %4) local_unnamed_addr #0 {
  %6 = icmp slt i32 %1, 1
  br i1 %6, label %7, label %9

7:                                                ; preds = %5
  %8 = tail call noundef i32 @_Z25tMPI_Thread_get_hw_numberv()
  %spec.store.select = tail call i32 @llvm.smax.i32(i32 %8, i32 1)
  br label %9

9:                                                ; preds = %7, %5
  %.011 = phi i32 [ %spec.store.select, %7 ], [ %1, %5 ]
  %10 = load ptr, ptr @TMPI_COMM_WORLD, align 8, !tbaa !3
  %11 = icmp eq ptr %10, null
  br i1 %11, label %12, label %14

12:                                               ; preds = %9
  %13 = tail call fastcc noundef i32 @_ZL18tMPI_Start_threadsii22tMPI_Affinity_strategyPiPPPcPFvPKvES5_PFiiS2_E(i32 noundef %0, i32 noundef %.011, i32 noundef %2, ptr noundef null, ptr noundef null, ptr noundef %3, ptr noundef %4, ptr noundef null)
  %.not = icmp eq i32 %13, 0
  br i1 %.not, label %14, label %15

14:                                               ; preds = %12, %9
  br label %15

15:                                               ; preds = %12, %14
  %.0 = phi i32 [ 0, %14 ], [ %13, %12 ]
  ret i32 %.0
}